; Function Attrs: null_pointer_is_valid sspstrong uwtable
define internal noundef zeroext i16 @de_emm_ue_info_req(ptr noundef %0, ptr noundef %1, ptr readnone captures(none) %2, i32 noundef %3, i32 noundef %4, ptr readnone captures(none) %5, i32 %6) #1 {
  %8 = load i32, ptr @hf_nas_eps_spare_bits, align 4
  %9 = shl i32 %3, 3
  %10 = or disjoint i32 %9, 4
  %11 = tail call ptr @proto_tree_add_bits_item(ptr noundef %1, i32 noundef %8, ptr noundef %0, i32 noundef %10, i32 noundef 3, i32 noundef 0)
  %12 = load i32, ptr @hf_nas_eps_emm_ue_info_req_uclir, align 4
  %13 = tail call ptr @proto_tree_add_item(ptr noundef %1, i32 noundef %12, ptr noundef %0, i32 noundef %3, i32 noundef 1, i32 noundef 0)
  %14 = trunc i32 %4 to i16
  ret i16 %14
}